Certificate:
    Data:
        Version: 3 (0x2)
        Serial Number:
            84:d7:21:68:0c:fd:db:27:79:f2:8f:a9:00:f2:b8:fa
    Signature Algorithm: sha256WithRSAEncryption
        Issuer: CN=rasvpn
        Validity
            Not Before: May 21 12:13:59 2020 GMT
            Not After : Aug 24 12:13:59 2022 GMT
        Subject: CN=client
        Subject Public Key Info:
            Public Key Algorithm: rsaEncryption
                Public-Key: (2048 bit)
                Modulus:
                    00:ba:63:90:02:b5:a3:a8:32:f9:5c:36:10:b3:22:
                    dd:bd:37:20:49:10:53:12:e8:9a:be:fa:ae:31:e0:
                    5b:bc:57:36:1c:b1:96:97:06:de:eb:02:f1:56:9e:
                    b4:ce:4c:34:71:c8:ca:8f:07:94:b3:29:89:85:cb:
                    21:93:2f:6e:1d:38:c7:58:79:a4:be:f9:72:27:31:
                    b4:8f:d0:86:38:e0:5a:fa:58:80:e3:09:d2:7e:e8:
                    4e:48:af:d5:7a:88:75:07:86:87:7d:24:51:2c:8e:
                    fa:93:04:77:57:57:42:3d:98:24:a4:a6:d3:6a:aa:
                    b1:fe:c5:98:a5:e1:6d:82:c3:f5:9e:46:f1:f5:b4:
                    39:3d:99:cf:65:05:b6:0c:76:95:de:80:fd:12:5b:
                    01:57:3a:b4:42:b2:c1:51:13:cd:b0:4f:54:c5:4a:
                    1d:49:e5:75:02:7b:6a:b8:82:ee:71:ea:40:63:c4:
                    73:87:40:2c:f5:a0:d3:63:0c:d5:9c:83:44:82:7a:
                    31:91:83:f9:47:9c:15:1e:ee:4a:7c:79:01:ec:bf:
                    c7:37:85:14:cc:31:6d:41:f4:39:f9:d7:fb:79:9c:
                    71:84:61:ad:20:77:af:99:9c:29:0d:f4:38:21:57:
                    b5:4b:a3:70:1d:3e:6c:c8:52:85:08:62:19:c0:bc:
                    7d:03
                Exponent: 65537 (0x10001)
        X509v3 extensions:
            X509v3 Basic Constraints: 
                CA:FALSE
            X509v3 Subject Key Identifier: 
                18:B6:EF:63:47:2A:93:0B:11:B0:17:32:82:F7:FD:29:4D:D8:73:63
            X509v3 Authority Key Identifier: 
                keyid:03:63:7C:B3:EC:46:2C:66:46:DA:0C:AD:44:1E:5C:6B:6C:1C:60:12
                DirName:/CN=rasvpn
                serial:CC:8E:A5:3E:C8:AF:D1:4A

            X509v3 Extended Key Usage: 
                TLS Web Client Authentication
            X509v3 Key Usage: 
                Digital Signature
    Signature Algorithm: sha256WithRSAEncryption
         35:6d:7b:c0:9e:7b:aa:ad:c7:31:61:50:4a:96:51:45:b5:a9:
         67:22:da:ed:83:e6:af:27:c6:b5:b0:d4:0a:e5:0c:6b:0e:f1:
         e8:19:71:87:df:2d:2c:44:3f:d1:12:18:c1:55:22:04:50:da:
         d7:53:bf:13:79:5e:dc:15:8c:95:dc:c8:50:9e:2a:a7:41:aa:
         d3:22:73:72:e8:31:00:cd:bf:d8:d7:a6:91:80:75:02:f1:43:
         e5:82:58:4a:0a:68:7f:03:9e:eb:b1:c8:e6:5e:3d:52:52:37:
         d4:62:21:a2:17:5e:0c:63:ff:c6:c2:40:46:e3:b3:72:9b:a5:
         91:3a:0a:98:1d:93:f2:82:e4:da:52:48:da:72:0b:fd:41:46:
         03:8d:e8:3c:9f:f7:4d:84:87:f4:fd:70:ab:3d:2d:fc:2f:2d:
         e7:82:8d:73:96:69:df:1d:e2:06:30:d8:d2:9a:16:39:2e:c5:
         29:f2:24:ce:b7:4a:6a:03:50:98:b9:41:ae:16:fe:f6:01:df:
         15:08:d0:50:bc:90:eb:fc:f9:1f:a7:8a:e3:20:5e:14:15:fd:
         25:fd:f5:2e:31:76:1a:86:8f:51:4f:74:63:3b:c4:50:89:96:
         74:96:d8:c1:ab:b3:aa:d7:f5:9f:c4:9d:72:ea:11:39:8e:64:
         59:a3:7a:6b
-----BEGIN CERTIFICATE-----
MIIDQDCCAiigAwIBAgIRAITXIWgM/dsnefKPqQDyuPowDQYJKoZIhvcNAQELBQAw
ETEPMA0GA1UEAwwGcmFzdnBuMB4XDTIwMDUyMTEyMTM1OVoXDTIyMDgyNDEyMTM1
OVowETEPMA0GA1UEAwwGY2xpZW50MIIBIjANBgkqhkiG9w0BAQEFAAOCAQ8AMIIB
CgKCAQEAumOQArWjqDL5XDYQsyLdvTcgSRBTEuiavvquMeBbvFc2HLGWlwbe6wLx
Vp60zkw0ccjKjweUsymJhcshky9uHTjHWHmkvvlyJzG0j9CGOOBa+liA4wnSfuhO
SK/Veoh1B4aHfSRRLI76kwR3V1dCPZgkpKbTaqqx/sWYpeFtgsP1nkbx9bQ5PZnP
ZQW2DHaV3oD9ElsBVzq0QrLBURPNsE9UxUodSeV1AntquILucepAY8Rzh0As9aDT
YwzVnINEgnoxkYP5R5wVHu5KfHkB7L/HN4UUzDFtQfQ5+df7eZxxhGGtIHevmZwp
DfQ4IVe1S6NwHT5syFKFCGIZwLx9AwIDAQABo4GSMIGPMAkGA1UdEwQCMAAwHQYD
VR0OBBYEFBi272NHKpMLEbAXMoL3/SlN2HNjMEEGA1UdIwQ6MDiAFANjfLPsRixm
RtoMrUQeXGtsHGASoRWkEzARMQ8wDQYDVQQDDAZyYXN2cG6CCQDMjqU+yK/RSjAT
BgNVHSUEDDAKBggrBgEFBQcDAjALBgNVHQ8EBAMCB4AwDQYJKoZIhvcNAQELBQAD
ggEBADVte8Cee6qtxzFhUEqWUUW1qWci2u2D5q8nxrWw1ArlDGsO8egZcYffLSxE
P9ESGMFVIgRQ2tdTvxN5XtwVjJXcyFCeKqdBqtMic3LoMQDNv9jXppGAdQLxQ+WC
WEoKaH8DnuuxyOZePVJSN9RiIaIXXgxj/8bCQEbjs3KbpZE6Cpgdk/KC5NpSSNpy
C/1BRgON6Dyf902Eh/T9cKs9LfwvLeeCjXOWad8d4gYw2NKaFjkuxSnyJM63SmoD
UJi5Qa4W/vYB3xUI0FC8kOv8+R+niuMgXhQV/SX99S4xdhqGj1FPdGM7xFCJlnSW
2MGrs6rX9Z/EnXLqETmOZFmjems=
-----END CERTIFICATE-----
